; Function Attrs: mustprogress nounwind uwtable
define internal noundef zeroext i1 @_ZL17beforeThanComparePKN4llvm6RecordES2_(ptr noundef %0, ptr noundef %1) #0 {
  %3 = getelementptr inbounds nuw i8, ptr %0, i64 8
  %4 = load ptr, ptr %3, align 8
  %5 = tail call noundef i64 @_ZNK4llvm15SmallVectorBaseIjE4sizeEv(ptr noundef nonnull align 8 dereferenceable(16) %3) #19
  %6 = load ptr, ptr %4, align 8
  %7 = getelementptr inbounds nuw i8, ptr %1, i64 8
  %8 = load ptr, ptr %7, align 8
  %9 = tail call noundef i64 @_ZNK4llvm15SmallVectorBaseIjE4sizeEv(ptr noundef nonnull align 8 dereferenceable(16) %7) #19
  %10 = load ptr, ptr %8, align 8
  %11 = icmp ult ptr %6, %10
  ret i1 %11
}